target datalayout = "e-m:e-p270:32:32-p271:32:32-p272:64:64-i64:64-i128:128-f80:128-n8:16:32:64-S128"
target triple = "x86_64-pc-linux-gnu"

%struct.mbedtls_ripemd160_context = type { [2 x i32], [5 x i32], [64 x i8] }

@ripemd160_padding = internal constant <{ i8, [63 x i8] }> <{ i8 -128, [63 x i8] zeroinitializer }>, align 16

; Function Attrs: nounwind uwtable
define hidden void @mbedtls_ripemd160_free(ptr noundef %0) #0 {
  %2 = alloca ptr, align 8
  store ptr %0, ptr %2, align 8, !tbaa !3
  %3 = load ptr, ptr %2, align 8, !tbaa !3
  %4 = icmp eq ptr %3, null
  br i1 %4, label %5, label %6

5:                                                ; preds = %1
  br label %8

6:                                                ; preds = %1
  %7 = load ptr, ptr %2, align 8, !tbaa !3
  call void @mbedtls_platform_zeroize(ptr noundef %7, i64 noundef 92)
  br label %8

8:                                                ; preds = %6, %5
  ret void
}

; Function Attrs: nounwind uwtable
define hidden i32 @mbedtls_ripemd160_update(ptr noundef %0, ptr noundef %1, i64 noundef %2) #0 {
  %4 = alloca i32, align 4
  %5 = alloca ptr, align 8
  %6 = alloca ptr, align 8
  %7 = alloca i64, align 8
  %8 = alloca i32, align 4
  %9 = alloca i64, align 8
  %10 = alloca i32, align 4
  %11 = alloca i32, align 4
  store ptr %0, ptr %5, align 8, !tbaa !3
  store ptr %1, ptr %6, align 8, !tbaa !12
  store i64 %2, ptr %7, align 8, !tbaa !26
  call void @llvm.lifetime.start.p0(i64 4, ptr %8) #7
  store i32 -110, ptr %8, align 4, !tbaa !10
  call void @llvm.lifetime.start.p0(i64 8, ptr %9) #7
  call void @llvm.lifetime.start.p0(i64 4, ptr %10) #7
  %12 = load i64, ptr %7, align 8, !tbaa !26
  %13 = icmp eq i64 %12, 0
  br i1 %13, label %14, label %15

14:                                               ; preds = %3
  store i32 0, ptr %4, align 4
  store i32 1, ptr %11, align 4
  br label %109

15:                                               ; preds = %3
  %16 = load ptr, ptr %5, align 8, !tbaa !3
  %17 = getelementptr inbounds nuw %struct.mbedtls_ripemd160_context, ptr %16, i32 0, i32 0
  %18 = getelementptr inbounds [2 x i32], ptr %17, i64 0, i64 0
  %19 = load i32, ptr %18, align 4, !tbaa !10
  %20 = and i32 %19, 63
  store i32 %20, ptr %10, align 4, !tbaa !10
  %21 = load i32, ptr %10, align 4, !tbaa !10
  %22 = sub i32 64, %21
  %23 = zext i32 %22 to i64
  store i64 %23, ptr %9, align 8, !tbaa !26
  %24 = load i64, ptr %7, align 8, !tbaa !26
  %25 = trunc i64 %24 to i32
  %26 = load ptr, ptr %5, align 8, !tbaa !3
  %27 = getelementptr inbounds nuw %struct.mbedtls_ripemd160_context, ptr %26, i32 0, i32 0
  %28 = getelementptr inbounds [2 x i32], ptr %27, i64 0, i64 0
  %29 = load i32, ptr %28, align 4, !tbaa !10
  %30 = add i32 %29, %25
  store i32 %30, ptr %28, align 4, !tbaa !10
  %31 = load ptr, ptr %5, align 8, !tbaa !3
  %32 = getelementptr inbounds nuw %struct.mbedtls_ripemd160_context, ptr %31, i32 0, i32 0
  %33 = getelementptr inbounds [2 x i32], ptr %32, i64 0, i64 0
  %34 = load i32, ptr %33, align 4, !tbaa !10
  %35 = and i32 %34, -1
  store i32 %35, ptr %33, align 4, !tbaa !10
  %36 = load ptr, ptr %5, align 8, !tbaa !3
  %37 = getelementptr inbounds nuw %struct.mbedtls_ripemd160_context, ptr %36, i32 0, i32 0
  %38 = getelementptr inbounds [2 x i32], ptr %37, i64 0, i64 0
  %39 = load i32, ptr %38, align 4, !tbaa !10
  %40 = load i64, ptr %7, align 8, !tbaa !26
  %41 = trunc i64 %40 to i32
  %42 = icmp ult i32 %39, %41
  br i1 %42, label %43, label %49

43:                                               ; preds = %15
  %44 = load ptr, ptr %5, align 8, !tbaa !3
  %45 = getelementptr inbounds nuw %struct.mbedtls_ripemd160_context, ptr %44, i32 0, i32 0
  %46 = getelementptr inbounds [2 x i32], ptr %45, i64 0, i64 1
  %47 = load i32, ptr %46, align 4, !tbaa !10
  %48 = add i32 %47, 1
  store i32 %48, ptr %46, align 4, !tbaa !10
  br label %49

49:                                               ; preds = %43, %15
  %50 = load i32, ptr %10, align 4, !tbaa !10
  %51 = icmp ne i32 %50, 0
  br i1 %51, label %52, label %80

52:                                               ; preds = %49
  %53 = load i64, ptr %7, align 8, !tbaa !26
  %54 = load i64, ptr %9, align 8, !tbaa !26
  %55 = icmp uge i64 %53, %54
  br i1 %55, label %56, label %80

56:                                               ; preds = %52
  %57 = load ptr, ptr %5, align 8, !tbaa !3
  %58 = getelementptr inbounds nuw %struct.mbedtls_ripemd160_context, ptr %57, i32 0, i32 2
  %59 = getelementptr inbounds [64 x i8], ptr %58, i64 0, i64 0
  %60 = load i32, ptr %10, align 4, !tbaa !10
  %61 = zext i32 %60 to i64
  %62 = getelementptr inbounds nuw i8, ptr %59, i64 %61
  %63 = load ptr, ptr %6, align 8, !tbaa !12
  %64 = load i64, ptr %9, align 8, !tbaa !26
  call void @llvm.memcpy.p0.p0.i64(ptr align 1 %62, ptr align 1 %63, i64 %64, i1 false)
  %65 = load ptr, ptr %5, align 8, !tbaa !3
  %66 = load ptr, ptr %5, align 8, !tbaa !3
  %67 = getelementptr inbounds nuw %struct.mbedtls_ripemd160_context, ptr %66, i32 0, i32 2
  %68 = getelementptr inbounds [64 x i8], ptr %67, i64 0, i64 0
  %69 = call i32 @mbedtls_internal_ripemd160_process(ptr noundef %65, ptr noundef %68)
  store i32 %69, ptr %8, align 4, !tbaa !10
  %70 = icmp ne i32 %69, 0
  br i1 %70, label %71, label %73

71:                                               ; preds = %56
  %72 = load i32, ptr %8, align 4, !tbaa !10
  store i32 %72, ptr %4, align 4
  store i32 1, ptr %11, align 4
  br label %109

73:                                               ; preds = %56
  %74 = load i64, ptr %9, align 8, !tbaa !26
  %75 = load ptr, ptr %6, align 8, !tbaa !12
  %76 = getelementptr inbounds nuw i8, ptr %75, i64 %74
  store ptr %76, ptr %6, align 8, !tbaa !12
  %77 = load i64, ptr %9, align 8, !tbaa !26
  %78 = load i64, ptr %7, align 8, !tbaa !26
  %79 = sub i64 %78, %77
  store i64 %79, ptr %7, align 8, !tbaa !26
  store i32 0, ptr %10, align 4, !tbaa !10
  br label %80

80:                                               ; preds = %73, %52, %49
  br label %81

81:                                               ; preds = %91, %80
  %82 = load i64, ptr %7, align 8, !tbaa !26
  %83 = icmp uge i64 %82, 64
  br i1 %83, label %84, label %96

84:                                               ; preds = %81
  %85 = load ptr, ptr %5, align 8, !tbaa !3
  %86 = load ptr, ptr %6, align 8, !tbaa !12
  %87 = call i32 @mbedtls_internal_ripemd160_process(ptr noundef %85, ptr noundef %86)
  store i32 %87, ptr %8, align 4, !tbaa !10
  %88 = icmp ne i32 %87, 0
  br i1 %88, label %89, label %91

89:                                               ; preds = %84
  %90 = load i32, ptr %8, align 4, !tbaa !10
  store i32 %90, ptr %4, align 4
  store i32 1, ptr %11, align 4
  br label %109

91:                                               ; preds = %84
  %92 = load ptr, ptr %6, align 8, !tbaa !12
  %93 = getelementptr inbounds i8, ptr %92, i64 64
  store ptr %93, ptr %6, align 8, !tbaa !12
  %94 = load i64, ptr %7, align 8, !tbaa !26
  %95 = sub i64 %94, 64
  store i64 %95, ptr %7, align 8, !tbaa !26
  br label %81, !llvm.loop !28

96:                                               ; preds = %81
  %97 = load i64, ptr %7, align 8, !tbaa !26
  %98 = icmp ugt i64 %97, 0
  br i1 %98, label %99, label %108

99:                                               ; preds = %96
  %100 = load ptr, ptr %5, align 8, !tbaa !3
  %101 = getelementptr inbounds nuw %struct.mbedtls_ripemd160_context, ptr %100, i32 0, i32 2
  %102 = getelementptr inbounds [64 x i8], ptr %101, i64 0, i64 0
  %103 = load i32, ptr %10, align 4, !tbaa !10
  %104 = zext i32 %103 to i64
  %105 = getelementptr inbounds nuw i8, ptr %102, i64 %104
  %106 = load ptr, ptr %6, align 8, !tbaa !12
  %107 = load i64, ptr %7, align 8, !tbaa !26
  call void @llvm.memcpy.p0.p0.i64(ptr align 1 %105, ptr align 1 %106, i64 %107, i1 false)
  br label %108

108:                                              ; preds = %99, %96
  store i32 0, ptr %4, align 4
  store i32 1, ptr %11, align 4
  br label %109

109:                                              ; preds = %108, %89, %71, %14
  call void @llvm.lifetime.end.p0(i64 4, ptr %10) #7
  call void @llvm.lifetime.end.p0(i64 8, ptr %9) #7
  call void @llvm.lifetime.end.p0(i64 4, ptr %8) #7
  %110 = load i32, ptr %4, align 4
  ret i32 %110
}

; Function Attrs: alwaysinline nounwind uwtable
define internal void @mbedtls_put_unaligned_uint32(ptr noundef %0, i32 noundef %1) #5 {
  %3 = alloca ptr, align 8
  %4 = alloca i32, align 4
  store ptr %0, ptr %3, align 8, !tbaa !25
  store i32 %1, ptr %4, align 4, !tbaa !10
  %5 = load ptr, ptr %3, align 8, !tbaa !25
  call void @llvm.memcpy.p0.p0.i64(ptr align 1 %5, ptr align 4 %4, i64 4, i1 false)
  ret void
}

; Function Attrs: nounwind uwtable
define hidden i32 @mbedtls_ripemd160_finish(ptr noundef %0, ptr noundef %1) #0 {
  %3 = alloca ptr, align 8
  %4 = alloca ptr, align 8
  %5 = alloca i32, align 4
  %6 = alloca i32, align 4
  %7 = alloca i32, align 4
  %8 = alloca i32, align 4
  %9 = alloca i32, align 4
  %10 = alloca [8 x i8], align 1
  store ptr %0, ptr %3, align 8, !tbaa !3
  store ptr %1, ptr %4, align 8, !tbaa !12
  call void @llvm.lifetime.start.p0(i64 4, ptr %5) #7
  store i32 -110, ptr %5, align 4, !tbaa !10
  call void @llvm.lifetime.start.p0(i64 4, ptr %6) #7
  call void @llvm.lifetime.start.p0(i64 4, ptr %7) #7
  call void @llvm.lifetime.start.p0(i64 4, ptr %8) #7
  call void @llvm.lifetime.start.p0(i64 4, ptr %9) #7
  call void @llvm.lifetime.start.p0(i64 8, ptr %10) #7
  %11 = load ptr, ptr %3, align 8, !tbaa !3
  %12 = getelementptr inbounds nuw %struct.mbedtls_ripemd160_context, ptr %11, i32 0, i32 0
  %13 = getelementptr inbounds [2 x i32], ptr %12, i64 0, i64 0
  %14 = load i32, ptr %13, align 4, !tbaa !10
  %15 = lshr i32 %14, 29
  %16 = load ptr, ptr %3, align 8, !tbaa !3
  %17 = getelementptr inbounds nuw %struct.mbedtls_ripemd160_context, ptr %16, i32 0, i32 0
  %18 = getelementptr inbounds [2 x i32], ptr %17, i64 0, i64 1
  %19 = load i32, ptr %18, align 4, !tbaa !10
  %20 = shl i32 %19, 3
  %21 = or i32 %15, %20
  store i32 %21, ptr %8, align 4, !tbaa !10
  %22 = load ptr, ptr %3, align 8, !tbaa !3
  %23 = getelementptr inbounds nuw %struct.mbedtls_ripemd160_context, ptr %22, i32 0, i32 0
  %24 = getelementptr inbounds [2 x i32], ptr %23, i64 0, i64 0
  %25 = load i32, ptr %24, align 4, !tbaa !10
  %26 = shl i32 %25, 3
  store i32 %26, ptr %9, align 4, !tbaa !10
  %27 = getelementptr inbounds [8 x i8], ptr %10, i64 0, i64 0
  %28 = getelementptr inbounds i8, ptr %27, i64 0
  %29 = load i32, ptr %9, align 4, !tbaa !10
  call void @mbedtls_put_unaligned_uint32(ptr noundef %28, i32 noundef %29)
  %30 = getelementptr inbounds [8 x i8], ptr %10, i64 0, i64 0
  %31 = getelementptr inbounds i8, ptr %30, i64 4
  %32 = load i32, ptr %8, align 4, !tbaa !10
  call void @mbedtls_put_unaligned_uint32(ptr noundef %31, i32 noundef %32)
  %33 = load ptr, ptr %3, align 8, !tbaa !3
  %34 = getelementptr inbounds nuw %struct.mbedtls_ripemd160_context, ptr %33, i32 0, i32 0
  %35 = getelementptr inbounds [2 x i32], ptr %34, i64 0, i64 0
  %36 = load i32, ptr %35, align 4, !tbaa !10
  %37 = and i32 %36, 63
  store i32 %37, ptr %6, align 4, !tbaa !10
  %38 = load i32, ptr %6, align 4, !tbaa !10
  %39 = icmp ult i32 %38, 56
  br i1 %39, label %40, label %43

40:                                               ; preds = %2
  %41 = load i32, ptr %6, align 4, !tbaa !10
  %42 = sub i32 56, %41
  br label %46

43:                                               ; preds = %2
  %44 = load i32, ptr %6, align 4, !tbaa !10
  %45 = sub i32 120, %44
  br label %46

46:                                               ; preds = %43, %40
  %47 = phi i32 [ %42, %40 ], [ %45, %43 ]
  store i32 %47, ptr %7, align 4, !tbaa !10
  %48 = load ptr, ptr %3, align 8, !tbaa !3
  %49 = load i32, ptr %7, align 4, !tbaa !10
  %50 = zext i32 %49 to i64
  %51 = call i32 @mbedtls_ripemd160_update(ptr noundef %48, ptr noundef @ripemd160_padding, i64 noundef %50)
  store i32 %51, ptr %5, align 4, !tbaa !10
  %52 = load i32, ptr %5, align 4, !tbaa !10
  %53 = icmp ne i32 %52, 0
  br i1 %53, label %54, label %55

54:                                               ; preds = %46
  br label %93

55:                                               ; preds = %46
  %56 = load ptr, ptr %3, align 8, !tbaa !3
  %57 = getelementptr inbounds [8 x i8], ptr %10, i64 0, i64 0
  %58 = call i32 @mbedtls_ripemd160_update(ptr noundef %56, ptr noundef %57, i64 noundef 8)
  store i32 %58, ptr %5, align 4, !tbaa !10
  %59 = load i32, ptr %5, align 4, !tbaa !10
  %60 = icmp ne i32 %59, 0
  br i1 %60, label %61, label %62

61:                                               ; preds = %55
  br label %93

62:                                               ; preds = %55
  %63 = load ptr, ptr %4, align 8, !tbaa !12
  %64 = getelementptr inbounds i8, ptr %63, i64 0
  %65 = load ptr, ptr %3, align 8, !tbaa !3
  %66 = getelementptr inbounds nuw %struct.mbedtls_ripemd160_context, ptr %65, i32 0, i32 1
  %67 = getelementptr inbounds [5 x i32], ptr %66, i64 0, i64 0
  %68 = load i32, ptr %67, align 4, !tbaa !10
  call void @mbedtls_put_unaligned_uint32(ptr noundef %64, i32 noundef %68)
  %69 = load ptr, ptr %4, align 8, !tbaa !12
  %70 = getelementptr inbounds i8, ptr %69, i64 4
  %71 = load ptr, ptr %3, align 8, !tbaa !3
  %72 = getelementptr inbounds nuw %struct.mbedtls_ripemd160_context, ptr %71, i32 0, i32 1
  %73 = getelementptr inbounds [5 x i32], ptr %72, i64 0, i64 1
  %74 = load i32, ptr %73, align 4, !tbaa !10
  call void @mbedtls_put_unaligned_uint32(ptr noundef %70, i32 noundef %74)
  %75 = load ptr, ptr %4, align 8, !tbaa !12
  %76 = getelementptr inbounds i8, ptr %75, i64 8
  %77 = load ptr, ptr %3, align 8, !tbaa !3
  %78 = getelementptr inbounds nuw %struct.mbedtls_ripemd160_context, ptr %77, i32 0, i32 1
  %79 = getelementptr inbounds [5 x i32], ptr %78, i64 0, i64 2
  %80 = load i32, ptr %79, align 4, !tbaa !10
  call void @mbedtls_put_unaligned_uint32(ptr noundef %76, i32 noundef %80)
  %81 = load ptr, ptr %4, align 8, !tbaa !12
  %82 = getelementptr inbounds i8, ptr %81, i64 12
  %83 = load ptr, ptr %3, align 8, !tbaa !3
  %84 = getelementptr inbounds nuw %struct.mbedtls_ripemd160_context, ptr %83, i32 0, i32 1
  %85 = getelementptr inbounds [5 x i32], ptr %84, i64 0, i64 3
  %86 = load i32, ptr %85, align 4, !tbaa !10
  call void @mbedtls_put_unaligned_uint32(ptr noundef %82, i32 noundef %86)
  %87 = load ptr, ptr %4, align 8, !tbaa !12
  %88 = getelementptr inbounds i8, ptr %87, i64 16
  %89 = load ptr, ptr %3, align 8, !tbaa !3
  %90 = getelementptr inbounds nuw %struct.mbedtls_ripemd160_context, ptr %89, i32 0, i32 1
  %91 = getelementptr inbounds [5 x i32], ptr %90, i64 0, i64 4
  %92 = load i32, ptr %91, align 4, !tbaa !10
  call void @mbedtls_put_unaligned_uint32(ptr noundef %88, i32 noundef %92)
  store i32 0, ptr %5, align 4, !tbaa !10
  br label %93

93:                                               ; preds = %62, %61, %54
  %94 = load ptr, ptr %3, align 8, !tbaa !3
  call void @mbedtls_ripemd160_free(ptr noundef %94)
  %95 = load i32, ptr %5, align 4, !tbaa !10
  call void @llvm.lifetime.end.p0(i64 8, ptr %10) #7
  call void @llvm.lifetime.end.p0(i64 4, ptr %9) #7
  call void @llvm.lifetime.end.p0(i64 4, ptr %8) #7
  call void @llvm.lifetime.end.p0(i64 4, ptr %7) #7
  call void @llvm.lifetime.end.p0(i64 4, ptr %6) #7
  call void @llvm.lifetime.end.p0(i64 4, ptr %5) #7
  ret i32 %95
}