; Function Attrs: nounwind uwtable
define hidden noundef i32 @mbedtls_ripemd160_finish(ptr noundef %0, ptr noundef writeonly captures(none) %1) local_unnamed_addr #2 {
  %3 = alloca [8 x i8], align 4
  call void @llvm.lifetime.start.p0(i64 8, ptr nonnull %3) #11
  %4 = load i32, ptr %0, align 4, !tbaa !7
  %5 = getelementptr inbounds nuw i8, ptr %0, i64 4
  %6 = load i32, ptr %5, align 4, !tbaa !7
  %7 = tail call i32 @llvm.fshl.i32(i32 %6, i32 %4, i32 3)
  %8 = shl i32 %4, 3
  store i32 %8, ptr %3, align 4
  %9 = getelementptr inbounds nuw i8, ptr %3, i64 4
  store i32 %7, ptr %9, align 4
  %10 = and i32 %4, 63
  %11 = icmp samesign ult i32 %10, 56
  %.v = select i1 %11, i32 56, i32 120
  %12 = sub nsw i32 %.v, %10
  %13 = zext i32 %12 to i64
  %14 = sub nuw nsw i32 64, %10
  %15 = zext nneg i32 %14 to i64
  %16 = add i32 %12, %4
  store i32 %16, ptr %0, align 4, !tbaa !7
  %17 = icmp ult i32 %16, %12
  br i1 %17, label %18, label %20

18:                                               ; preds = %2
  %19 = add i32 %6, 1
  store i32 %19, ptr %5, align 4, !tbaa !7
  br label %20

20:                                               ; preds = %18, %2
  %.not.i = icmp eq i32 %10, 0
  br i1 %.not.i, label %29, label %21

21:                                               ; preds = %20
  %.not44.i = icmp ult i32 %12, %14
  br i1 %.not44.i, label %._crit_edge.thread.i, label %22

22:                                               ; preds = %21
  %23 = getelementptr inbounds nuw i8, ptr %0, i64 28
  %24 = zext nneg i32 %10 to i64
  %25 = getelementptr inbounds nuw i8, ptr %23, i64 %24
  tail call void @llvm.memcpy.p0.p0.i64(ptr noundef nonnull align 1 dereferenceable(1) %25, ptr noundef nonnull align 16 dereferenceable(1) @ripemd160_padding, i64 %15, i1 false)
  %26 = tail call i32 @mbedtls_internal_ripemd160_process(ptr noundef nonnull %0, ptr noundef nonnull %23)
  %27 = getelementptr inbounds nuw i8, ptr @ripemd160_padding, i64 %15
  %28 = sub nuw nsw i64 %13, %15
  br label %29

29:                                               ; preds = %22, %20
  %.036.i = phi ptr [ %27, %22 ], [ @ripemd160_padding, %20 ]
  %.035.i = phi i64 [ %28, %22 ], [ %13, %20 ]
  %30 = icmp samesign ugt i64 %.035.i, 63
  br i1 %30, label %.lr.ph.i, label %._crit_edge.i

.lr.ph.i:                                         ; preds = %29, %.lr.ph.i
  %.147.i = phi i64 [ %33, %.lr.ph.i ], [ %.035.i, %29 ]
  %.13746.i = phi ptr [ %32, %.lr.ph.i ], [ %.036.i, %29 ]
  %31 = tail call i32 @mbedtls_internal_ripemd160_process(ptr noundef nonnull %0, ptr noundef %.13746.i)
  %32 = getelementptr inbounds nuw i8, ptr %.13746.i, i64 64
  %33 = add i64 %.147.i, -64
  %34 = icmp ugt i64 %33, 63
  br i1 %34, label %.lr.ph.i, label %._crit_edge.i, !llvm.loop !20

._crit_edge.i:                                    ; preds = %.lr.ph.i, %29
  %.137.lcssa.i = phi ptr [ %.036.i, %29 ], [ %32, %.lr.ph.i ]
  %.1.lcssa.i = phi i64 [ %.035.i, %29 ], [ %33, %.lr.ph.i ]
  %.not45.i = icmp eq i64 %.1.lcssa.i, 0
  br i1 %.not45.i, label %mbedtls_ripemd160_update.exit, label %._crit_edge.thread.i

._crit_edge.thread.i:                             ; preds = %._crit_edge.i, %21
  %.1.lcssa60.i = phi i64 [ %.1.lcssa.i, %._crit_edge.i ], [ %13, %21 ]
  %.137.lcssa59.i = phi ptr [ %.137.lcssa.i, %._crit_edge.i ], [ @ripemd160_padding, %21 ]
  %.05358.i = phi i32 [ 0, %._crit_edge.i ], [ %10, %21 ]
  %35 = getelementptr inbounds nuw i8, ptr %0, i64 28
  %36 = zext nneg i32 %.05358.i to i64
  %37 = getelementptr inbounds nuw i8, ptr %35, i64 %36
  tail call void @llvm.memcpy.p0.p0.i64(ptr nonnull align 1 %37, ptr align 1 %.137.lcssa59.i, i64 %.1.lcssa60.i, i1 false)
  br label %mbedtls_ripemd160_update.exit

mbedtls_ripemd160_update.exit:                    ; preds = %._crit_edge.i, %._crit_edge.thread.i
  %38 = load i32, ptr %0, align 4, !tbaa !7
  %39 = and i32 %38, 63
  %40 = sub nuw nsw i32 64, %39
  %41 = zext nneg i32 %40 to i64
  %42 = add i32 %38, 8
  store i32 %42, ptr %0, align 4, !tbaa !7
  %43 = icmp ugt i32 %38, -9
  br i1 %43, label %44, label %47

44:                                               ; preds = %mbedtls_ripemd160_update.exit
  %45 = load i32, ptr %5, align 4, !tbaa !7
  %46 = add i32 %45, 1
  store i32 %46, ptr %5, align 4, !tbaa !7
  br label %47

47:                                               ; preds = %44, %mbedtls_ripemd160_update.exit
  %.not.i27 = icmp eq i32 %39, 0
  br i1 %.not.i27, label %._crit_edge.thread.i35, label %48

48:                                               ; preds = %47
  %.not44.i28 = icmp samesign ult i32 %39, 56
  br i1 %.not44.i28, label %._crit_edge.thread.i35, label %._crit_edge.i31

._crit_edge.i31:                                  ; preds = %48
  %49 = getelementptr inbounds nuw i8, ptr %0, i64 28
  %50 = zext nneg i32 %39 to i64
  %51 = getelementptr inbounds nuw i8, ptr %49, i64 %50
  call void @llvm.memcpy.p0.p0.i64(ptr noundef nonnull align 1 dereferenceable(1) %51, ptr noundef nonnull readonly align 4 dereferenceable(1) %3, i64 %41, i1 false)
  %52 = tail call i32 @mbedtls_internal_ripemd160_process(ptr noundef nonnull %0, ptr noundef nonnull %49)
  %53 = getelementptr inbounds nuw i8, ptr %3, i64 %41
  %54 = sub nuw nsw i64 8, %41
  %.not45.i34 = icmp eq i32 %39, 56
  br i1 %.not45.i34, label %mbedtls_ripemd160_free.exit, label %._crit_edge.thread.i35

._crit_edge.thread.i35:                           ; preds = %47, %._crit_edge.i31, %48
  %.1.lcssa60.i36 = phi i64 [ %54, %._crit_edge.i31 ], [ 8, %48 ], [ 8, %47 ]
  %.137.lcssa59.i37 = phi ptr [ %53, %._crit_edge.i31 ], [ %3, %48 ], [ %3, %47 ]
  %.05358.i38 = phi i32 [ 0, %._crit_edge.i31 ], [ %39, %48 ], [ 0, %47 ]
  %55 = getelementptr inbounds nuw i8, ptr %0, i64 28
  %56 = zext nneg i32 %.05358.i38 to i64
  %57 = getelementptr inbounds nuw i8, ptr %55, i64 %56
  call void @llvm.memcpy.p0.p0.i64(ptr nonnull align 1 %57, ptr nonnull align 1 %.137.lcssa59.i37, i64 %.1.lcssa60.i36, i1 false)
  br label %mbedtls_ripemd160_free.exit

mbedtls_ripemd160_free.exit:                      ; preds = %._crit_edge.i31, %._crit_edge.thread.i35
  %58 = getelementptr inbounds nuw i8, ptr %0, i64 8
  %59 = load i32, ptr %58, align 4, !tbaa !7
  store i32 %59, ptr %1, align 1
  %60 = getelementptr inbounds nuw i8, ptr %1, i64 4
  %61 = getelementptr inbounds nuw i8, ptr %0, i64 12
  %62 = load i32, ptr %61, align 4, !tbaa !7
  store i32 %62, ptr %60, align 1
  %63 = getelementptr inbounds nuw i8, ptr %1, i64 8
  %64 = getelementptr inbounds nuw i8, ptr %0, i64 16
  %65 = load i32, ptr %64, align 4, !tbaa !7
  store i32 %65, ptr %63, align 1
  %66 = getelementptr inbounds nuw i8, ptr %1, i64 12
  %67 = getelementptr inbounds nuw i8, ptr %0, i64 20
  %68 = load i32, ptr %67, align 4, !tbaa !7
  store i32 %68, ptr %66, align 1
  %69 = getelementptr inbounds nuw i8, ptr %1, i64 16
  %70 = getelementptr inbounds nuw i8, ptr %0, i64 24
  %71 = load i32, ptr %70, align 4, !tbaa !7
  store i32 %71, ptr %69, align 1
  tail call void @mbedtls_platform_zeroize(ptr noundef nonnull %0, i64 noundef 92) #11
  call void @llvm.lifetime.end.p0(i64 8, ptr nonnull %3) #11
  ret i32 0
}